; Function Attrs: mustprogress uwtable
define dso_local void @_ZN3igl6opengl31bind_vertex_attrib_array_helperIdEEviiiPKT_b(i32 noundef %0, i32 noundef %1, i32 noundef %2, ptr noundef %3, i1 noundef zeroext %4) local_unnamed_addr #0 {
  br i1 %4, label %6, label %10

6:                                                ; preds = %5
  %7 = load ptr, ptr @glad_glBufferData, align 8, !tbaa !4
  %8 = sext i32 %1 to i64
  %9 = shl nsw i64 %8, 3
  tail call void %7(i32 noundef 34962, i64 noundef %9, ptr noundef %3, i32 noundef 35048)
  br label %10

10:                                               ; preds = %6, %5
  %11 = load ptr, ptr @glad_glVertexAttribLPointer, align 8, !tbaa !4
  tail call void %11(i32 noundef %0, i32 noundef %2, i32 noundef 5130, i32 noundef 0, ptr noundef null)
  ret void
}